target datalayout = "e-m:e-p270:32:32-p271:32:32-p272:64:64-i64:64-i128:128-f80:128-n8:16:32:64-S128"
target triple = "x86_64-pc-linux-gnu"

%struct.lua_TValue = type { %union.Value, [1 x i32], i32 }
%union.Value = type { ptr }
%struct.lua_State = type { i8, i8, i8, i8, i8, i8, i8, ptr, ptr, ptr, ptr, ptr, ptr, ptr, ptr, i32, i32, i16, i16, i32, ptr, ptr, ptr, ptr, ptr }
%struct.GCheader = type { i8, i8, i8 }
%struct.global_State = type { %struct.stringtable, ptr, ptr, i8, i8, ptr, ptr, ptr, i64, i64, i32, i32, i32, [40 x ptr], [40 x ptr], ptr, ptr, ptr, [256 x i64], ptr, %struct.UpVal, [11 x ptr], [11 x ptr], [21 x ptr], %struct.lua_TValue, %struct.lua_TValue, i32, ptr, i64, [4 x i64], %struct.lua_Callbacks, %struct.lua_ExecutionCallbacks, [128 x ptr], [128 x ptr], [128 x ptr], %struct.GCStats }
%struct.stringtable = type { ptr, i32, i32 }
%struct.UpVal = type { i8, i8, i8, i8, ptr, %union.anon.3 }
%union.anon.3 = type { %struct.anon.4 }
%struct.anon.4 = type { ptr, ptr, ptr }
%struct.lua_Callbacks = type { ptr, ptr, ptr, ptr, ptr, ptr, ptr, ptr, ptr, ptr }
%struct.lua_ExecutionCallbacks = type { ptr, ptr, ptr, ptr, ptr, ptr, ptr }
%struct.GCStats = type { [32 x i32], i32, i32, i64, i64, i64, double, double, double }
%struct.TString = type { i8, i8, i8, i16, ptr, i32, i32, [1 x i8] }

@luaO_nilobject_ = external hidden global %struct.lua_TValue, align 8

; Function Attrs: alwaysinline mustprogress uwtable
define internal noundef ptr @_ZL10index2addrP9lua_Statei(ptr noundef %0, i32 noundef %1) #2 {
  %3 = alloca ptr, align 8
  %4 = alloca ptr, align 8
  %5 = alloca i32, align 4
  %6 = alloca ptr, align 8
  %7 = alloca i32, align 4
  store ptr %0, ptr %4, align 8, !tbaa !4
  store i32 %1, ptr %5, align 4, !tbaa !9
  %8 = load i32, ptr %5, align 4, !tbaa !9
  %9 = icmp sgt i32 %8, 0
  br i1 %9, label %10, label %27

10:                                               ; preds = %2
  call void @llvm.lifetime.start.p0(i64 8, ptr %6) #11
  %11 = load ptr, ptr %4, align 8, !tbaa !4
  %12 = getelementptr inbounds nuw %struct.lua_State, ptr %11, i32 0, i32 8
  %13 = load ptr, ptr %12, align 8, !tbaa !13
  %14 = load i32, ptr %5, align 4, !tbaa !9
  %15 = sub nsw i32 %14, 1
  %16 = sext i32 %15 to i64
  %17 = getelementptr inbounds %struct.lua_TValue, ptr %13, i64 %16
  store ptr %17, ptr %6, align 8, !tbaa !11
  %18 = load ptr, ptr %6, align 8, !tbaa !11
  %19 = load ptr, ptr %4, align 8, !tbaa !4
  %20 = getelementptr inbounds nuw %struct.lua_State, ptr %19, i32 0, i32 7
  %21 = load ptr, ptr %20, align 8, !tbaa !23
  %22 = icmp uge ptr %18, %21
  br i1 %22, label %23, label %24

23:                                               ; preds = %10
  store ptr @luaO_nilobject_, ptr %3, align 8
  store i32 1, ptr %7, align 4
  br label %26

24:                                               ; preds = %10
  %25 = load ptr, ptr %6, align 8, !tbaa !11
  store ptr %25, ptr %3, align 8
  store i32 1, ptr %7, align 4
  br label %26

26:                                               ; preds = %24, %23
  call void @llvm.lifetime.end.p0(i64 8, ptr %6) #11
  br label %41

27:                                               ; preds = %2
  %28 = load i32, ptr %5, align 4, !tbaa !9
  %29 = icmp sgt i32 %28, -10000
  br i1 %29, label %30, label %37

30:                                               ; preds = %27
  %31 = load ptr, ptr %4, align 8, !tbaa !4
  %32 = getelementptr inbounds nuw %struct.lua_State, ptr %31, i32 0, i32 7
  %33 = load ptr, ptr %32, align 8, !tbaa !23
  %34 = load i32, ptr %5, align 4, !tbaa !9
  %35 = sext i32 %34 to i64
  %36 = getelementptr inbounds %struct.lua_TValue, ptr %33, i64 %35
  store ptr %36, ptr %3, align 8
  br label %41

37:                                               ; preds = %27
  %38 = load ptr, ptr %4, align 8, !tbaa !4
  %39 = load i32, ptr %5, align 4, !tbaa !9
  %40 = call noundef ptr @_ZL11pseudo2addrP9lua_Statei(ptr noundef %38, i32 noundef %39)
  store ptr %40, ptr %3, align 8
  br label %41

41:                                               ; preds = %37, %30, %26
  %42 = load ptr, ptr %3, align 8
  ret ptr %42
}

; Function Attrs: mustprogress uwtable
define dso_local noundef ptr @_Z13lua_tolstringP9lua_StateiPm(ptr noundef %0, i32 noundef %1, ptr noundef %2) #0 {
  %4 = alloca ptr, align 8
  %5 = alloca ptr, align 8
  %6 = alloca i32, align 4
  %7 = alloca ptr, align 8
  %8 = alloca ptr, align 8
  %9 = alloca i32, align 4
  store ptr %0, ptr %5, align 8, !tbaa !4
  store i32 %1, ptr %6, align 4, !tbaa !9
  store ptr %2, ptr %7, align 8, !tbaa !67
  call void @llvm.lifetime.start.p0(i64 8, ptr %8) #11
  %10 = load ptr, ptr %5, align 8, !tbaa !4
  %11 = load i32, ptr %6, align 4, !tbaa !9
  %12 = call noundef ptr @_ZL10index2addrP9lua_Statei(ptr noundef %10, i32 noundef %11)
  store ptr %12, ptr %8, align 8, !tbaa !11
  %13 = load ptr, ptr %8, align 8, !tbaa !11
  %14 = getelementptr inbounds nuw %struct.lua_TValue, ptr %13, i32 0, i32 2
  %15 = load i32, ptr %14, align 4, !tbaa !49
  %16 = icmp eq i32 %15, 5
  br i1 %16, label %62, label %17

17:                                               ; preds = %3
  %18 = load ptr, ptr %5, align 8, !tbaa !4
  %19 = getelementptr inbounds %struct.lua_State, ptr %18, i64 0
  %20 = getelementptr inbounds nuw %struct.GCheader, ptr %19, i32 0, i32 1
  %21 = load i8, ptr %20, align 1, !tbaa !25
  %22 = zext i8 %21 to i32
  %23 = and i32 %22, 4
  %24 = icmp ne i32 %23, 0
  br i1 %24, label %25, label %31

25:                                               ; preds = %17
  %26 = load ptr, ptr %5, align 8, !tbaa !4
  %27 = load ptr, ptr %5, align 8, !tbaa !4
  %28 = getelementptr inbounds %struct.lua_State, ptr %27, i64 0
  %29 = load ptr, ptr %5, align 8, !tbaa !4
  %30 = getelementptr inbounds nuw %struct.lua_State, ptr %29, i32 0, i32 22
  call void @_Z16luaC_barrierbackP9lua_StateP8GCObjectPS2_(ptr noundef %26, ptr noundef %28, ptr noundef %30)
  br label %31

31:                                               ; preds = %25, %17
  %32 = load ptr, ptr %5, align 8, !tbaa !4
  %33 = load ptr, ptr %8, align 8, !tbaa !11
  %34 = call noundef i32 @_Z13luaV_tostringP9lua_StateP10lua_TValue(ptr noundef %32, ptr noundef %33)
  %35 = icmp ne i32 %34, 0
  br i1 %35, label %42, label %36

36:                                               ; preds = %31
  %37 = load ptr, ptr %7, align 8, !tbaa !67
  %38 = icmp ne ptr %37, null
  br i1 %38, label %39, label %41

39:                                               ; preds = %36
  %40 = load ptr, ptr %7, align 8, !tbaa !67
  store i64 0, ptr %40, align 8, !tbaa !69
  br label %41

41:                                               ; preds = %39, %36
  store ptr null, ptr %4, align 8
  store i32 1, ptr %9, align 4
  br label %79

42:                                               ; preds = %31
  %43 = load ptr, ptr %5, align 8, !tbaa !4
  %44 = getelementptr inbounds nuw %struct.lua_State, ptr %43, i32 0, i32 9
  %45 = load ptr, ptr %44, align 8, !tbaa !33
  %46 = getelementptr inbounds nuw %struct.global_State, ptr %45, i32 0, i32 9
  %47 = load i64, ptr %46, align 8, !tbaa !34
  %48 = load ptr, ptr %5, align 8, !tbaa !4
  %49 = getelementptr inbounds nuw %struct.lua_State, ptr %48, i32 0, i32 9
  %50 = load ptr, ptr %49, align 8, !tbaa !33
  %51 = getelementptr inbounds nuw %struct.global_State, ptr %50, i32 0, i32 8
  %52 = load i64, ptr %51, align 8, !tbaa !48
  %53 = icmp uge i64 %47, %52
  br i1 %53, label %54, label %57

54:                                               ; preds = %42
  %55 = load ptr, ptr %5, align 8, !tbaa !4
  %56 = call noundef i64 @_Z9luaC_stepP9lua_Stateb(ptr noundef %55, i1 noundef zeroext true)
  br label %58

57:                                               ; preds = %42
  br label %58

58:                                               ; preds = %57, %54
  %59 = load ptr, ptr %5, align 8, !tbaa !4
  %60 = load i32, ptr %6, align 4, !tbaa !9
  %61 = call noundef ptr @_ZL10index2addrP9lua_Statei(ptr noundef %59, i32 noundef %60)
  store ptr %61, ptr %8, align 8, !tbaa !11
  br label %62

62:                                               ; preds = %58, %3
  %63 = load ptr, ptr %7, align 8, !tbaa !67
  %64 = icmp ne ptr %63, null
  br i1 %64, label %65, label %73

65:                                               ; preds = %62
  %66 = load ptr, ptr %8, align 8, !tbaa !11
  %67 = getelementptr inbounds nuw %struct.lua_TValue, ptr %66, i32 0, i32 0
  %68 = load ptr, ptr %67, align 8, !tbaa !25
  %69 = getelementptr inbounds nuw %struct.TString, ptr %68, i32 0, i32 6
  %70 = load i32, ptr %69, align 4, !tbaa !70
  %71 = zext i32 %70 to i64
  %72 = load ptr, ptr %7, align 8, !tbaa !67
  store i64 %71, ptr %72, align 8, !tbaa !69
  br label %73

73:                                               ; preds = %65, %62
  %74 = load ptr, ptr %8, align 8, !tbaa !11
  %75 = getelementptr inbounds nuw %struct.lua_TValue, ptr %74, i32 0, i32 0
  %76 = load ptr, ptr %75, align 8, !tbaa !25
  %77 = getelementptr inbounds nuw %struct.TString, ptr %76, i32 0, i32 7
  %78 = getelementptr inbounds [1 x i8], ptr %77, i64 0, i64 0
  store ptr %78, ptr %4, align 8
  store i32 1, ptr %9, align 4
  br label %79

79:                                               ; preds = %73, %41
  call void @llvm.lifetime.end.p0(i64 8, ptr %8) #11
  %80 = load ptr, ptr %4, align 8
  ret ptr %80
}