; Function Attrs: mustprogress uwtable
define dso_local noundef ptr @_Z13lua_tolstringP9lua_StateiPm(ptr noundef %0, i32 noundef %1, ptr noundef writeonly %2) local_unnamed_addr #3 {
  %4 = icmp sgt i32 %1, 0
  br i1 %4, label %5, label %13

5:                                                ; preds = %3
  %6 = getelementptr inbounds nuw i8, ptr %0, i64 16
  %7 = load ptr, ptr %6, align 8, !tbaa !4
  %8 = zext nneg i32 %1 to i64
  %9 = getelementptr %struct.lua_TValue, ptr %7, i64 %8
  %10 = getelementptr i8, ptr %9, i64 -16
  %11 = getelementptr inbounds nuw i8, ptr %0, i64 8
  %12 = load ptr, ptr %11, align 8, !tbaa !19
  %.not.i27 = icmp ult ptr %10, %12
  %.luaO_nilobject_.i28 = select i1 %.not.i27, ptr %10, ptr @luaO_nilobject_
  br label %_ZL10index2addrP9lua_Statei.exit29

13:                                               ; preds = %3
  %14 = icmp sgt i32 %1, -10000
  br i1 %14, label %15, label %20

15:                                               ; preds = %13
  %16 = getelementptr inbounds nuw i8, ptr %0, i64 8
  %17 = load ptr, ptr %16, align 8, !tbaa !19
  %18 = sext i32 %1 to i64
  %19 = getelementptr inbounds %struct.lua_TValue, ptr %17, i64 %18
  br label %_ZL10index2addrP9lua_Statei.exit29

20:                                               ; preds = %13
  %21 = tail call fastcc noundef ptr @_ZL11pseudo2addrP9lua_Statei(ptr noundef %0, i32 noundef %1)
  br label %_ZL10index2addrP9lua_Statei.exit29

_ZL10index2addrP9lua_Statei.exit29:               ; preds = %5, %15, %20
  %.1.i26 = phi ptr [ %.luaO_nilobject_.i28, %5 ], [ %19, %15 ], [ %21, %20 ]
  %22 = getelementptr inbounds nuw i8, ptr %.1.i26, i64 12
  %23 = load i32, ptr %22, align 4, !tbaa !47
  %24 = icmp eq i32 %23, 5
  br i1 %24, label %_ZL10index2addrP9lua_Statei.exit, label %25

25:                                               ; preds = %_ZL10index2addrP9lua_Statei.exit29
  %26 = getelementptr inbounds nuw i8, ptr %0, i64 1
  %27 = load i8, ptr %26, align 1, !tbaa !21
  %28 = and i8 %27, 4
  %.not = icmp eq i8 %28, 0
  br i1 %.not, label %31, label %29

29:                                               ; preds = %25
  %30 = getelementptr inbounds nuw i8, ptr %0, i64 104
  tail call void @_Z16luaC_barrierbackP9lua_StateP8GCObjectPS2_(ptr noundef nonnull %0, ptr noundef nonnull %0, ptr noundef nonnull %30)
  br label %31

31:                                               ; preds = %29, %25
  %32 = tail call noundef i32 @_Z13luaV_tostringP9lua_StateP10lua_TValue(ptr noundef nonnull %0, ptr noundef nonnull %.1.i26)
  %.not22 = icmp eq i32 %32, 0
  br i1 %.not22, label %33, label %35

33:                                               ; preds = %31
  %.not23 = icmp eq ptr %2, null
  br i1 %.not23, label %70, label %34

34:                                               ; preds = %33
  store i64 0, ptr %2, align 8, !tbaa !60
  br label %70

35:                                               ; preds = %31
  %36 = getelementptr inbounds nuw i8, ptr %0, i64 24
  %37 = load ptr, ptr %36, align 8, !tbaa !30
  %38 = getelementptr inbounds nuw i8, ptr %37, i64 72
  %39 = load i64, ptr %38, align 8, !tbaa !31
  %40 = getelementptr inbounds nuw i8, ptr %37, i64 64
  %41 = load i64, ptr %40, align 8, !tbaa !46
  %.not24 = icmp ult i64 %39, %41
  br i1 %.not24, label %44, label %42

42:                                               ; preds = %35
  %43 = tail call noundef i64 @_Z9luaC_stepP9lua_Stateb(ptr noundef nonnull %0, i1 noundef zeroext true)
  br label %44

44:                                               ; preds = %35, %42
  br i1 %4, label %45, label %53

45:                                               ; preds = %44
  %46 = getelementptr inbounds nuw i8, ptr %0, i64 16
  %47 = load ptr, ptr %46, align 8, !tbaa !4
  %48 = zext nneg i32 %1 to i64
  %49 = getelementptr %struct.lua_TValue, ptr %47, i64 %48
  %50 = getelementptr i8, ptr %49, i64 -16
  %51 = getelementptr inbounds nuw i8, ptr %0, i64 8
  %52 = load ptr, ptr %51, align 8, !tbaa !19
  %.not.i = icmp ult ptr %50, %52
  %.luaO_nilobject_.i = select i1 %.not.i, ptr %50, ptr @luaO_nilobject_
  br label %_ZL10index2addrP9lua_Statei.exit

53:                                               ; preds = %44
  %54 = icmp sgt i32 %1, -10000
  br i1 %54, label %55, label %60

55:                                               ; preds = %53
  %56 = getelementptr inbounds nuw i8, ptr %0, i64 8
  %57 = load ptr, ptr %56, align 8, !tbaa !19
  %58 = sext i32 %1 to i64
  %59 = getelementptr inbounds %struct.lua_TValue, ptr %57, i64 %58
  br label %_ZL10index2addrP9lua_Statei.exit

60:                                               ; preds = %53
  %61 = tail call fastcc noundef ptr @_ZL11pseudo2addrP9lua_Statei(ptr noundef nonnull %0, i32 noundef %1)
  br label %_ZL10index2addrP9lua_Statei.exit

_ZL10index2addrP9lua_Statei.exit:                 ; preds = %60, %55, %45, %_ZL10index2addrP9lua_Statei.exit29
  %.0 = phi ptr [ %.1.i26, %_ZL10index2addrP9lua_Statei.exit29 ], [ %.luaO_nilobject_.i, %45 ], [ %59, %55 ], [ %61, %60 ]
  %.not25 = icmp eq ptr %2, null
  br i1 %.not25, label %67, label %62

62:                                               ; preds = %_ZL10index2addrP9lua_Statei.exit
  %63 = load ptr, ptr %.0, align 8, !tbaa !21
  %64 = getelementptr inbounds nuw i8, ptr %63, i64 20
  %65 = load i32, ptr %64, align 4, !tbaa !61
  %66 = zext i32 %65 to i64
  store i64 %66, ptr %2, align 8, !tbaa !60
  br label %67

67:                                               ; preds = %62, %_ZL10index2addrP9lua_Statei.exit
  %68 = load ptr, ptr %.0, align 8, !tbaa !21
  %69 = getelementptr inbounds nuw i8, ptr %68, i64 24
  br label %70

70:                                               ; preds = %33, %34, %67
  %.020 = phi ptr [ %69, %67 ], [ null, %34 ], [ null, %33 ]
  ret ptr %.020
}